; ModuleID = '5/172.c'
source_filename = "5/172.c"
target datalayout = "e-m:e-p270:32:32-p271:32:32-p272:64:64-i64:64-f80:128-n8:16:32:64-S128"
target triple = "x86_64-pc-linux-gnu"

@.str = private unnamed_addr constant [4 x i8] c"%lf\00", align 1
@.str.1 = private unnamed_addr constant [6 x i8] c"error\00", align 1
@.str.2 = private unnamed_addr constant [4 x i8] c"yes\00", align 1
@.str.3 = private unnamed_addr constant [3 x i8] c"no\00", align 1

; Function Attrs: noinline nounwind uwtable
define dso_local i32 @main() #0 {
  %1 = alloca i32, align 4
  %2 = alloca double, align 8
  %3 = alloca double, align 8
  %4 = alloca double, align 8
  %5 = alloca [600 x i8], align 16
  %6 = alloca [600 x i8], align 16
  %7 = alloca i32, align 4
  store i32 0, i32* %1, align 4
  store double 0.000000e+00, double* %3, align 8
  store double 0.000000e+00, double* %4, align 8
  %8 = call i32 (i8*, ...) @__isoc99_scanf(i8* getelementptr inbounds ([4 x i8], [4 x i8]* @.str, i64 0, i64 0), double* %2)
  %9 = call i32 @getchar()
  %10 = getelementptr inbounds [600 x i8], [600 x i8]* %5, i64 0, i64 0
  %11 = call i32 (i8*, ...) bitcast (i32 (...)* @gets to i32 (i8*, ...)*)(i8* %10)
  %12 = getelementptr inbounds [600 x i8], [600 x i8]* %6, i64 0, i64 0
  %13 = call i32 (i8*, ...) bitcast (i32 (...)* @gets to i32 (i8*, ...)*)(i8* %12)
  %14 = getelementptr inbounds [600 x i8], [600 x i8]* %5, i64 0, i64 0
  %15 = call i64 @strlen(i8* %14) #3
  %16 = getelementptr inbounds [600 x i8], [600 x i8]* %6, i64 0, i64 0
  %17 = call i64 @strlen(i8* %16) #3
  %18 = icmp eq i64 %15, %17
  br i1 %18, label %19, label %104

19:                                               ; preds = %0
  store i32 0, i32* %7, align 4
  br label %20

20:                                               ; preds = %100, %19
  %21 = load i32, i32* %7, align 4
  %22 = sext i32 %21 to i64
  %23 = getelementptr inbounds [600 x i8], [600 x i8]* %5, i64 0, i64 0
  %24 = call i64 @strlen(i8* %23) #3
  %25 = icmp ult i64 %22, %24
  br i1 %25, label %26, label %103

26:                                               ; preds = %20
  %27 = load i32, i32* %7, align 4
  %28 = sext i32 %27 to i64
  %29 = getelementptr inbounds [600 x i8], [600 x i8]* %5, i64 0, i64 %28
  %30 = load i8, i8* %29, align 1
  %31 = sext i8 %30 to i32
  %32 = icmp ne i32 %31, 65
  br i1 %32, label %33, label %54

33:                                               ; preds = %26
  %34 = load i32, i32* %7, align 4
  %35 = sext i32 %34 to i64
  %36 = getelementptr inbounds [600 x i8], [600 x i8]* %5, i64 0, i64 %35
  %37 = load i8, i8* %36, align 1
  %38 = sext i8 %37 to i32
  %39 = icmp ne i32 %38, 84
  br i1 %39, label %40, label %54

40:                                               ; preds = %33
  %41 = load i32, i32* %7, align 4
  %42 = sext i32 %41 to i64
  %43 = getelementptr inbounds [600 x i8], [600 x i8]* %5, i64 0, i64 %42
  %44 = load i8, i8* %43, align 1
  %45 = sext i8 %44 to i32
  %46 = icmp ne i32 %45, 71
  br i1 %46, label %47, label %54

47:                                               ; preds = %40
  %48 = load i32, i32* %7, align 4
  %49 = sext i32 %48 to i64
  %50 = getelementptr inbounds [600 x i8], [600 x i8]* %5, i64 0, i64 %49
  %51 = load i8, i8* %50, align 1
  %52 = sext i8 %51 to i32
  %53 = icmp ne i32 %52, 67
  br i1 %53, label %82, label %54

54:                                               ; preds = %47, %40, %33, %26
  %55 = load i32, i32* %7, align 4
  %56 = sext i32 %55 to i64
  %57 = getelementptr inbounds [600 x i8], [600 x i8]* %6, i64 0, i64 %56
  %58 = load i8, i8* %57, align 1
  %59 = sext i8 %58 to i32
  %60 = icmp ne i32 %59, 65
  br i1 %60, label %61, label %84

61:                                               ; preds = %54
  %62 = load i32, i32* %7, align 4
  %63 = sext i32 %62 to i64
  %64 = getelementptr inbounds [600 x i8], [600 x i8]* %6, i64 0, i64 %63
  %65 = load i8, i8* %64, align 1
  %66 = sext i8 %65 to i32
  %67 = icmp ne i32 %66, 84
  br i1 %67, label %68, label %84

68:                                               ; preds = %61
  %69 = load i32, i32* %7, align 4
  %70 = sext i32 %69 to i64
  %71 = getelementptr inbounds [600 x i8], [600 x i8]* %6, i64 0, i64 %70
  %72 = load i8, i8* %71, align 1
  %73 = sext i8 %72 to i32
  %74 = icmp ne i32 %73, 71
  br i1 %74, label %75, label %84

75:                                               ; preds = %68
  %76 = load i32, i32* %7, align 4
  %77 = sext i32 %76 to i64
  %78 = getelementptr inbounds [600 x i8], [600 x i8]* %6, i64 0, i64 %77
  %79 = load i8, i8* %78, align 1
  %80 = sext i8 %79 to i32
  %81 = icmp ne i32 %80, 67
  br i1 %81, label %82, label %84

82:                                               ; preds = %75, %47
  %83 = call i32 (i8*, ...) @printf(i8* getelementptr inbounds ([6 x i8], [6 x i8]* @.str.1, i64 0, i64 0))
  store double 1.000000e+00, double* %4, align 8
  br label %103

84:                                               ; preds = %75, %68, %61, %54
  %85 = load i32, i32* %7, align 4
  %86 = sext i32 %85 to i64
  %87 = getelementptr inbounds [600 x i8], [600 x i8]* %5, i64 0, i64 %86
  %88 = load i8, i8* %87, align 1
  %89 = sext i8 %88 to i32
  %90 = load i32, i32* %7, align 4
  %91 = sext i32 %90 to i64
  %92 = getelementptr inbounds [600 x i8], [600 x i8]* %6, i64 0, i64 %91
  %93 = load i8, i8* %92, align 1
  %94 = sext i8 %93 to i32
  %95 = icmp eq i32 %89, %94
  br i1 %95, label %96, label %99

96:                                               ; preds = %84
  %97 = load double, double* %3, align 8
  %98 = fadd double %97, 1.000000e+00
  store double %98, double* %3, align 8
  br label %99

99:                                               ; preds = %96, %84
  br label %100

100:                                              ; preds = %99
  %101 = load i32, i32* %7, align 4
  %102 = add nsw i32 %101, 1
  store i32 %102, i32* %7, align 4
  br label %20

103:                                              ; preds = %82, %20
  br label %106

104:                                              ; preds = %0
  %105 = call i32 (i8*, ...) @printf(i8* getelementptr inbounds ([6 x i8], [6 x i8]* @.str.1, i64 0, i64 0))
  store double 1.000000e+00, double* %4, align 8
  br label %106

106:                                              ; preds = %104, %103
  %107 = load double, double* %4, align 8
  %108 = fcmp oeq double %107, 0.000000e+00
  br i1 %108, label %109, label %123

109:                                              ; preds = %106
  %110 = load double, double* %3, align 8
  %111 = getelementptr inbounds [600 x i8], [600 x i8]* %5, i64 0, i64 0
  %112 = call i64 @strlen(i8* %111) #3
  %113 = uitofp i64 %112 to double
  %114 = fdiv double %110, %113
  store double %114, double* %3, align 8
  %115 = load double, double* %2, align 8
  %116 = load double, double* %3, align 8
  %117 = fcmp olt double %115, %116
  br i1 %117, label %118, label %120

118:                                              ; preds = %109
  %119 = call i32 (i8*, ...) @printf(i8* getelementptr inbounds ([4 x i8], [4 x i8]* @.str.2, i64 0, i64 0))
  br label %122

120:                                              ; preds = %109
  %121 = call i32 (i8*, ...) @printf(i8* getelementptr inbounds ([3 x i8], [3 x i8]* @.str.3, i64 0, i64 0))
  br label %122

122:                                              ; preds = %120, %118
  br label %123

123:                                              ; preds = %122, %106
  ret i32 0
}

declare dso_local i32 @__isoc99_scanf(i8*, ...) #1

declare dso_local i32 @getchar() #1

declare dso_local i32 @gets(...) #1

; Function Attrs: nounwind readonly
declare dso_local i64 @strlen(i8*) #2

declare dso_local i32 @printf(i8*, ...) #1


!llvm.module.flags = !{!0}
!llvm.ident = !{!1}

!0 = !{i32 1, !"wchar_size", i32 4}
!1 = !{!"clang version 10.0.0-4ubuntu1 "}
